; Function Attrs: nounwind uwtable
define hidden void @malloc_cprintf(ptr noundef readonly %write_cb, ptr noundef %cbopaque, ptr noundef %format, ...) local_unnamed_addr #0 {
entry:
  %buf.i = alloca [4096 x i8], align 16
  %ap = alloca [1 x %struct.__va_list_tag], align 16
  call void @llvm.va_start.p0(ptr nonnull %ap)
  call void @llvm.lifetime.start.p0(i64 4096, ptr nonnull %buf.i)
  %cmp.i = icmp eq ptr %write_cb, null
  %0 = load ptr, ptr @je_malloc_message, align 8
  %cmp1.not.i = icmp eq ptr %0, null
  %cond.i = select i1 %cmp1.not.i, ptr @wrtmessage, ptr %0
  %write_cb.addr.0.i = select i1 %cmp.i, ptr %cond.i, ptr %write_cb
  %call.i = call i64 @malloc_vsnprintf(ptr noundef nonnull %buf.i, i64 noundef 4096, ptr noundef %format, ptr noundef nonnull %ap) #15
  call void %write_cb.addr.0.i(ptr noundef %cbopaque, ptr noundef nonnull %buf.i) #13
  call void @llvm.lifetime.end.p0(i64 4096, ptr nonnull %buf.i)
  call void @llvm.va_end.p0(ptr nonnull %ap)
  ret void
}